; Function Attrs: nounwind uwtable
define internal noalias noundef ptr @_acct_update_thread(ptr readnone captures(none) %0) #6 {
  %2 = tail call i32 @pthread_mutex_lock(ptr noundef nonnull getelementptr inbounds nuw (i8, ptr @slurmctld_config, i64 56)) #19
  %.not = icmp eq i32 %2, 0
  br i1 %.not, label %.preheader, label %4

.preheader:                                       ; preds = %1
  %3 = load i64, ptr getelementptr inbounds nuw (i8, ptr @slurmctld_config, i64 328), align 8
  %.not811 = icmp eq i64 %3, 0
  br i1 %.not811, label %.lr.ph, label %._crit_edge

4:                                                ; preds = %1
  %5 = tail call ptr @__errno_location() #21
  store i32 %2, ptr %5, align 4
  tail call void (ptr, ...) @fatal_abort(ptr noundef nonnull @.str.43, ptr noundef nonnull @__func__._acct_update_thread) #20
  unreachable

.lr.ph:                                           ; preds = %.preheader, %10
  %6 = tail call i32 @pthread_cond_wait(ptr noundef nonnull getelementptr inbounds nuw (i8, ptr @slurmctld_config, i64 8), ptr noundef nonnull getelementptr inbounds nuw (i8, ptr @slurmctld_config, i64 56)) #19
  %.not10 = icmp eq i32 %6, 0
  br i1 %.not10, label %10, label %7

7:                                                ; preds = %.lr.ph
  %8 = tail call ptr @__errno_location() #21
  store i32 %6, ptr %8, align 4
  %9 = tail call i32 (ptr, ...) @error(ptr noundef nonnull @.str.222, ptr noundef nonnull @.str.59, i32 noundef 3912, ptr noundef nonnull @__func__._acct_update_thread) #19
  br label %10

10:                                               ; preds = %7, %.lr.ph
  %11 = load ptr, ptr @slurmctld_config, align 8
  %12 = tail call i32 @list_delete_all(ptr noundef %11, ptr noundef nonnull @_acct_update_list_for_each, ptr noundef null) #19
  %13 = load i64, ptr getelementptr inbounds nuw (i8, ptr @slurmctld_config, i64 328), align 8
  %.not8 = icmp eq i64 %13, 0
  br i1 %.not8, label %.lr.ph, label %._crit_edge, !llvm.loop !27

._crit_edge:                                      ; preds = %10, %.preheader
  %14 = tail call i32 @pthread_mutex_unlock(ptr noundef nonnull getelementptr inbounds nuw (i8, ptr @slurmctld_config, i64 56)) #19
  %.not9 = icmp eq i32 %14, 0
  br i1 %.not9, label %17, label %15

15:                                               ; preds = %._crit_edge
  %16 = tail call ptr @__errno_location() #21
  store i32 %14, ptr %16, align 4
  tail call void (ptr, ...) @fatal_abort(ptr noundef nonnull @.str.44, ptr noundef nonnull @__func__._acct_update_thread) #20
  unreachable

17:                                               ; preds = %._crit_edge
  ret ptr null
}